target datalayout = "e-m:e-p270:32:32-p271:32:32-p272:64:64-i64:64-i128:128-f80:128-n8:16:32:64-S128"
target triple = "x86_64-pc-linux-gnu"

%struct.slurmdb_job_rec_t = type { ptr, ptr, i32, i32, i32, i32, ptr, i32, ptr, ptr, ptr, ptr, i64, i32, ptr, i32, i64, i64, ptr, i32, ptr, ptr, i32, ptr, i32, i32, i32, i32, ptr, ptr, ptr, ptr, ptr, ptr, i32, i32, ptr, i32, i64, i32, i16, i32, ptr, ptr, i16, i32, i64, i32, i32, ptr, ptr, ptr, ptr, i64, ptr, i32, ptr, i64, i64, i32, i64, i64, ptr, ptr, i32, ptr, ptr, i64, i64, ptr, i32, ptr }

; Function Attrs: nounwind uwtable
define internal i32 @_sort_desc_submit_time(ptr noundef %0, ptr noundef %1) #0 {
  %3 = alloca i32, align 4
  %4 = alloca ptr, align 8
  %5 = alloca ptr, align 8
  %6 = alloca ptr, align 8
  %7 = alloca ptr, align 8
  %8 = alloca i32, align 4
  store ptr %0, ptr %4, align 8
  store ptr %1, ptr %5, align 8
  call void @llvm.lifetime.start.p0(i64 8, ptr %6) #6
  %9 = load ptr, ptr %4, align 8
  %10 = load ptr, ptr %9, align 8
  store ptr %10, ptr %6, align 8
  call void @llvm.lifetime.start.p0(i64 8, ptr %7) #6
  %11 = load ptr, ptr %5, align 8
  %12 = load ptr, ptr %11, align 8
  store ptr %12, ptr %7, align 8
  %13 = load ptr, ptr %6, align 8
  %14 = getelementptr inbounds nuw %struct.slurmdb_job_rec_t, ptr %13, i32 0, i32 53
  %15 = load i64, ptr %14, align 8
  %16 = load ptr, ptr %7, align 8
  %17 = getelementptr inbounds nuw %struct.slurmdb_job_rec_t, ptr %16, i32 0, i32 53
  %18 = load i64, ptr %17, align 8
  %19 = icmp slt i64 %15, %18
  br i1 %19, label %20, label %21

20:                                               ; preds = %2
  store i32 -1, ptr %3, align 4
  store i32 1, ptr %8, align 4
  br label %32

21:                                               ; preds = %2
  %22 = load ptr, ptr %6, align 8
  %23 = getelementptr inbounds nuw %struct.slurmdb_job_rec_t, ptr %22, i32 0, i32 53
  %24 = load i64, ptr %23, align 8
  %25 = load ptr, ptr %7, align 8
  %26 = getelementptr inbounds nuw %struct.slurmdb_job_rec_t, ptr %25, i32 0, i32 53
  %27 = load i64, ptr %26, align 8
  %28 = icmp sgt i64 %24, %27
  br i1 %28, label %29, label %30

29:                                               ; preds = %21
  store i32 1, ptr %3, align 4
  store i32 1, ptr %8, align 4
  br label %32

30:                                               ; preds = %21
  br label %31

31:                                               ; preds = %30
  store i32 0, ptr %3, align 4
  store i32 1, ptr %8, align 4
  br label %32

32:                                               ; preds = %31, %29, %20
  call void @llvm.lifetime.end.p0(i64 8, ptr %7) #6
  call void @llvm.lifetime.end.p0(i64 8, ptr %6) #6
  %33 = load i32, ptr %3, align 4
  ret i32 %33
}